target datalayout = "e-m:e-p270:32:32-p271:32:32-p272:64:64-i64:64-i128:128-f80:128-n8:16:32:64-S128"
target triple = "x86_64-pc-linux-gnu"

%"struct.OpenImageIO::v3_1_0::TypeDesc" = type { i8, i8, i8, i8, i32 }
%"class.OpenImageIO::v3_1_0::basic_string_view" = type { ptr, i64 }
%"struct.OpenImageIO::v3_1_0::(anonymous namespace)::ChanNameHolder" = type <{ %"class.OpenImageIO::v3_1_0::basic_string_view", %"class.OpenImageIO::v3_1_0::basic_string_view", %"class.OpenImageIO::v3_1_0::basic_string_view", i32, i32, i32, %"struct.OpenImageIO::v3_1_0::TypeDesc", i32, i32, [4 x i8] }>

; Function Attrs: mustprogress nounwind uwtable
define linkonce_odr noundef i32 @_ZNSt11char_traitsIcE7compareEPKcS2_m(ptr noundef %0, ptr noundef %1, i64 noundef %2) #7 comdat align 2 {
  %4 = alloca i32, align 4
  %5 = alloca ptr, align 8
  %6 = alloca ptr, align 8
  %7 = alloca i64, align 8
  store ptr %0, ptr %5, align 8, !tbaa !12
  store ptr %1, ptr %6, align 8, !tbaa !12
  store i64 %2, ptr %7, align 8, !tbaa !32
  %8 = load i64, ptr %7, align 8, !tbaa !32
  %9 = icmp eq i64 %8, 0
  br i1 %9, label %10, label %11

10:                                               ; preds = %3
  store i32 0, ptr %4, align 4
  br label %16

11:                                               ; preds = %3
  %12 = load ptr, ptr %5, align 8, !tbaa !12
  %13 = load ptr, ptr %6, align 8, !tbaa !12
  %14 = load i64, ptr %7, align 8, !tbaa !32
  %15 = call i32 @memcmp(ptr noundef %12, ptr noundef %13, i64 noundef %14) #5
  store i32 %15, ptr %4, align 4
  br label %16

16:                                               ; preds = %11, %10
  %17 = load i32, ptr %4, align 4
  ret i32 %17
}

; Function Attrs: inlinehint mustprogress nounwind uwtable
define linkonce_odr noundef nonnull align 8 dereferenceable(8) ptr @_ZSt3minImERKT_S2_S2_(ptr noundef nonnull align 8 dereferenceable(8) %0, ptr noundef nonnull align 8 dereferenceable(8) %1) #0 comdat {
  %3 = alloca ptr, align 8
  %4 = alloca ptr, align 8
  %5 = alloca ptr, align 8
  store ptr %0, ptr %4, align 8, !tbaa !688
  store ptr %1, ptr %5, align 8, !tbaa !688
  %6 = load ptr, ptr %5, align 8, !tbaa !688
  %7 = load i64, ptr %6, align 8, !tbaa !32
  %8 = load ptr, ptr %4, align 8, !tbaa !688
  %9 = load i64, ptr %8, align 8, !tbaa !32
  %10 = icmp ult i64 %7, %9
  br i1 %10, label %11, label %13

11:                                               ; preds = %2
  %12 = load ptr, ptr %5, align 8, !tbaa !688
  store ptr %12, ptr %3, align 8
  br label %15

13:                                               ; preds = %2
  %14 = load ptr, ptr %4, align 8, !tbaa !688
  store ptr %14, ptr %3, align 8
  br label %15

15:                                               ; preds = %13, %11
  %16 = load ptr, ptr %3, align 8
  ret ptr %16
}

; Function Attrs: noinline noreturn nounwind uwtable
define linkonce_odr hidden void @__clang_call_terminate(ptr noundef %0) #14 comdat {
  %2 = call ptr @__cxa_begin_catch(ptr %0) #5
  call void @_ZSt9terminatev() #27
  unreachable
}

; Function Attrs: mustprogress nounwind uwtable
define linkonce_odr hidden noundef i32 @_ZNK11OpenImageIO6v3_1_017basic_string_viewIcSt11char_traitsIcEE7compareES4_(ptr noundef nonnull align 8 dereferenceable(16) %0, ptr noundef %1) #7 comdat align 2 personality ptr @__gxx_personality_v0 {
  %3 = alloca ptr, align 8
  %4 = alloca ptr, align 8
  %5 = alloca i32, align 4
  store ptr %0, ptr %3, align 8, !tbaa !30
  store ptr %1, ptr %4, align 8, !tbaa !30
  %6 = load ptr, ptr %3, align 8
  call void @llvm.lifetime.start.p0(i64 4, ptr %5) #5
  %7 = getelementptr inbounds nuw %"class.OpenImageIO::v3_1_0::basic_string_view", ptr %6, i32 0, i32 0
  %8 = load ptr, ptr %7, align 8, !tbaa !35
  %9 = getelementptr inbounds nuw %"class.OpenImageIO::v3_1_0::basic_string_view", ptr %1, i32 0, i32 0
  %10 = load ptr, ptr %9, align 8, !tbaa !35
  %11 = getelementptr inbounds nuw %"class.OpenImageIO::v3_1_0::basic_string_view", ptr %6, i32 0, i32 1
  %12 = getelementptr inbounds nuw %"class.OpenImageIO::v3_1_0::basic_string_view", ptr %1, i32 0, i32 1
  %13 = invoke noundef nonnull align 8 dereferenceable(8) ptr @_ZSt3minImERKT_S2_S2_(ptr noundef nonnull align 8 dereferenceable(8) %11, ptr noundef nonnull align 8 dereferenceable(8) %12)
          to label %14 unwind label %32

14:                                               ; preds = %2
  %15 = load i64, ptr %13, align 8, !tbaa !32
  %16 = invoke noundef i32 @_ZNSt11char_traitsIcE7compareEPKcS2_m(ptr noundef %8, ptr noundef %10, i64 noundef %15)
          to label %17 unwind label %32

17:                                               ; preds = %14
  store i32 %16, ptr %5, align 4, !tbaa !14
  %18 = load i32, ptr %5, align 4, !tbaa !14
  %19 = icmp ne i32 %18, 0
  br i1 %19, label %20, label %22

20:                                               ; preds = %17
  %21 = load i32, ptr %5, align 4, !tbaa !14
  br label %30

22:                                               ; preds = %17
  %23 = getelementptr inbounds nuw %"class.OpenImageIO::v3_1_0::basic_string_view", ptr %6, i32 0, i32 1
  %24 = load i64, ptr %23, align 8, !tbaa !37
  %25 = trunc i64 %24 to i32
  %26 = getelementptr inbounds nuw %"class.OpenImageIO::v3_1_0::basic_string_view", ptr %1, i32 0, i32 1
  %27 = load i64, ptr %26, align 8, !tbaa !37
  %28 = trunc i64 %27 to i32
  %29 = sub nsw i32 %25, %28
  br label %30

30:                                               ; preds = %22, %20
  %31 = phi i32 [ %21, %20 ], [ %29, %22 ]
  call void @llvm.lifetime.end.p0(i64 4, ptr %5) #5
  ret i32 %31

32:                                               ; preds = %14, %2
  %33 = landingpad { ptr, i32 }
          catch ptr null
  %34 = extractvalue { ptr, i32 } %33, 0
  call void @__clang_call_terminate(ptr %34) #27
  unreachable
}

; Function Attrs: mustprogress nounwind uwtable
define linkonce_odr hidden noundef i64 @_ZNK11OpenImageIO6v3_1_017basic_string_viewIcSt11char_traitsIcEE4sizeEv(ptr noundef nonnull align 8 dereferenceable(16) %0) #7 comdat align 2 {
  %2 = alloca ptr, align 8
  store ptr %0, ptr %2, align 8, !tbaa !30
  %3 = load ptr, ptr %2, align 8
  %4 = getelementptr inbounds nuw %"class.OpenImageIO::v3_1_0::basic_string_view", ptr %3, i32 0, i32 1
  %5 = load i64, ptr %4, align 8, !tbaa !37
  ret i64 %5
}

; Function Attrs: mustprogress nounwind uwtable
define linkonce_odr hidden noundef ptr @_ZNK11OpenImageIO6v3_1_017basic_string_viewIcSt11char_traitsIcEE4dataEv(ptr noundef nonnull align 8 dereferenceable(16) %0) #7 comdat align 2 {
  %2 = alloca ptr, align 8
  store ptr %0, ptr %2, align 8, !tbaa !30
  %3 = load ptr, ptr %2, align 8
  %4 = getelementptr inbounds nuw %"class.OpenImageIO::v3_1_0::basic_string_view", ptr %3, i32 0, i32 0
  %5 = load ptr, ptr %4, align 8, !tbaa !35
  ret ptr %5
}

; Function Attrs: mustprogress nounwind uwtable
define linkonce_odr hidden noundef zeroext i1 @_ZN11OpenImageIO6v3_1_0ltENS0_17basic_string_viewIcSt11char_traitsIcEEES4_(ptr noundef %0, ptr noundef %1) #7 comdat personality ptr @__gxx_personality_v0 {
  %3 = alloca ptr, align 8
  %4 = alloca ptr, align 8
  %5 = alloca %"class.OpenImageIO::v3_1_0::basic_string_view", align 8
  store ptr %0, ptr %3, align 8, !tbaa !30
  store ptr %1, ptr %4, align 8, !tbaa !30
  invoke void @_ZN11OpenImageIO6v3_1_017basic_string_viewIcSt11char_traitsIcEEC2ERKS4_(ptr noundef nonnull align 8 dereferenceable(16) %5, ptr noundef nonnull align 8 dereferenceable(16) %1)
          to label %6 unwind label %9

6:                                                ; preds = %2
  %7 = call noundef i32 @_ZNK11OpenImageIO6v3_1_017basic_string_viewIcSt11char_traitsIcEE7compareES4_(ptr noundef nonnull align 8 dereferenceable(16) %0, ptr noundef %5) #5
  %8 = icmp slt i32 %7, 0
  ret i1 %8

9:                                                ; preds = %2
  %10 = landingpad { ptr, i32 }
          catch ptr null
  %11 = extractvalue { ptr, i32 } %10, 0
  call void @__clang_call_terminate(ptr %11) #27
  unreachable
}

; Function Attrs: mustprogress nounwind uwtable
define linkonce_odr hidden void @_ZN11OpenImageIO6v3_1_017basic_string_viewIcSt11char_traitsIcEEC2ERKS4_(ptr noundef nonnull align 8 dereferenceable(16) %0, ptr noundef nonnull align 8 dereferenceable(16) %1) unnamed_addr #7 comdat align 2 {
  %3 = alloca ptr, align 8
  %4 = alloca ptr, align 8
  store ptr %0, ptr %3, align 8, !tbaa !30
  store ptr %1, ptr %4, align 8, !tbaa !30
  %5 = load ptr, ptr %3, align 8
  %6 = getelementptr inbounds nuw %"class.OpenImageIO::v3_1_0::basic_string_view", ptr %5, i32 0, i32 0
  %7 = load ptr, ptr %4, align 8, !tbaa !30
  %8 = call noundef ptr @_ZNK11OpenImageIO6v3_1_017basic_string_viewIcSt11char_traitsIcEE4dataEv(ptr noundef nonnull align 8 dereferenceable(16) %7) #5
  store ptr %8, ptr %6, align 8, !tbaa !35
  %9 = getelementptr inbounds nuw %"class.OpenImageIO::v3_1_0::basic_string_view", ptr %5, i32 0, i32 1
  %10 = load ptr, ptr %4, align 8, !tbaa !30
  %11 = call noundef i64 @_ZNK11OpenImageIO6v3_1_017basic_string_viewIcSt11char_traitsIcEE4sizeEv(ptr noundef nonnull align 8 dereferenceable(16) %10) #5
  store i64 %11, ptr %9, align 8, !tbaa !37
  ret void
}

; Function Attrs: mustprogress uwtable
define internal noundef zeroext i1 @_ZN11OpenImageIO6v3_1_012_GLOBAL__N_114ChanNameHolder13compare_layerERKS2_S4_(ptr noundef nonnull align 8 dereferenceable(76) %0, ptr noundef nonnull align 8 dereferenceable(76) %1) #8 align 2 {
  %3 = alloca ptr, align 8
  %4 = alloca ptr, align 8
  %5 = alloca %"class.OpenImageIO::v3_1_0::basic_string_view", align 8
  %6 = alloca %"class.OpenImageIO::v3_1_0::basic_string_view", align 8
  store ptr %0, ptr %3, align 8, !tbaa !306
  store ptr %1, ptr %4, align 8, !tbaa !306
  %7 = load ptr, ptr %3, align 8, !tbaa !306
  %8 = getelementptr inbounds nuw %"struct.OpenImageIO::v3_1_0::(anonymous namespace)::ChanNameHolder", ptr %7, i32 0, i32 1
  call void @_ZN11OpenImageIO6v3_1_017basic_string_viewIcSt11char_traitsIcEEC2ERKS4_(ptr noundef nonnull align 8 dereferenceable(16) %5, ptr noundef nonnull align 8 dereferenceable(16) %8)
  %9 = load ptr, ptr %4, align 8, !tbaa !306
  %10 = getelementptr inbounds nuw %"struct.OpenImageIO::v3_1_0::(anonymous namespace)::ChanNameHolder", ptr %9, i32 0, i32 1
  call void @_ZN11OpenImageIO6v3_1_017basic_string_viewIcSt11char_traitsIcEEC2ERKS4_(ptr noundef nonnull align 8 dereferenceable(16) %6, ptr noundef nonnull align 8 dereferenceable(16) %10)
  %11 = call noundef zeroext i1 @_ZN11OpenImageIO6v3_1_0ltENS0_17basic_string_viewIcSt11char_traitsIcEEES4_(ptr noundef %5, ptr noundef %6) #5
  ret i1 %11
}