; Function Attrs: mustprogress nofree nounwind willreturn memory(read, inaccessiblemem: none) uwtable
define internal noundef zeroext i1 @_ZN11OpenImageIO6v3_1_012_GLOBAL__N_114ChanNameHolder13compare_layerERKS2_S4_(ptr noundef nonnull readonly align 8 captures(none) dereferenceable(76) %0, ptr noundef nonnull readonly align 8 captures(none) dereferenceable(76) %1) #15 align 2 personality ptr @__gxx_personality_v0 {
  %3 = getelementptr inbounds nuw i8, ptr %0, i64 24
  %4 = load i64, ptr %3, align 8, !tbaa !89
  %5 = getelementptr inbounds nuw i8, ptr %1, i64 24
  %6 = load i64, ptr %5, align 8, !tbaa !89
  %7 = tail call i64 @llvm.umin.i64(i64 %6, i64 %4)
  %8 = icmp eq i64 %7, 0
  br i1 %8, label %_ZNSt11char_traitsIcE7compareEPKcS2_m.exit.thread.i.i, label %_ZNSt11char_traitsIcE7compareEPKcS2_m.exit.i.i

_ZNSt11char_traitsIcE7compareEPKcS2_m.exit.i.i:   ; preds = %2
  %9 = getelementptr inbounds nuw i8, ptr %1, i64 16
  %10 = load ptr, ptr %9, align 8, !tbaa !91
  %11 = getelementptr inbounds nuw i8, ptr %0, i64 16
  %12 = load ptr, ptr %11, align 8, !tbaa !91
  %13 = tail call i32 @memcmp(ptr noundef %12, ptr noundef %10, i64 noundef %7) #32
  %.not.i.i = icmp eq i32 %13, 0
  br i1 %.not.i.i, label %_ZNSt11char_traitsIcE7compareEPKcS2_m.exit.thread.i.i, label %_ZN11OpenImageIO6v3_1_0ltENS0_17basic_string_viewIcSt11char_traitsIcEEES4_.exit

_ZNSt11char_traitsIcE7compareEPKcS2_m.exit.thread.i.i: ; preds = %_ZNSt11char_traitsIcE7compareEPKcS2_m.exit.i.i, %2
  %14 = trunc i64 %4 to i32
  %15 = trunc i64 %6 to i32
  %16 = sub nsw i32 %14, %15
  br label %_ZN11OpenImageIO6v3_1_0ltENS0_17basic_string_viewIcSt11char_traitsIcEEES4_.exit

_ZN11OpenImageIO6v3_1_0ltENS0_17basic_string_viewIcSt11char_traitsIcEEES4_.exit: ; preds = %_ZNSt11char_traitsIcE7compareEPKcS2_m.exit.i.i, %_ZNSt11char_traitsIcE7compareEPKcS2_m.exit.thread.i.i
  %17 = phi i32 [ %16, %_ZNSt11char_traitsIcE7compareEPKcS2_m.exit.thread.i.i ], [ %13, %_ZNSt11char_traitsIcE7compareEPKcS2_m.exit.i.i ]
  %18 = icmp slt i32 %17, 0
  ret i1 %18
}